target datalayout = "e-m:e-p270:32:32-p271:32:32-p272:64:64-i64:64-i128:128-f80:128-n8:16:32:64-S128"
target triple = "x86_64-unknown-linux-gnu"

%"class.std::__cxx11::basic_string" = type { %"struct.std::__cxx11::basic_string<char>::_Alloc_hider", i64, %union.anon }
%"struct.std::__cxx11::basic_string<char>::_Alloc_hider" = type { ptr }
%union.anon = type { i64, [8 x i8] }
%"struct.proxygen::HTTPMessage::Response" = type { i16, %"class.std::__cxx11::basic_string", %"class.std::__cxx11::basic_string" }

; Function Attrs: mustprogress uwtable
define linkonce_odr void @_ZN8proxygen11HTTPMessage16setStatusMessageIRKNSt7__cxx1112basic_stringIcSt11char_traitsIcESaIcEEEEEvOT_(ptr noundef nonnull align 8 dereferenceable(616) %this, ptr noundef nonnull align 8 dereferenceable(32) %msg) #3 comdat align 2 {
entry:
  %this.addr = alloca ptr, align 8
  %msg.addr = alloca ptr, align 8
  store ptr %this, ptr %this.addr, align 8
  store ptr %msg, ptr %msg.addr, align 8
  %this1 = load ptr, ptr %this.addr, align 8
  %0 = load ptr, ptr %msg.addr, align 8
  %call = call noundef nonnull align 8 dereferenceable(72) ptr @_ZN8proxygen11HTTPMessage8responseEv(ptr noundef nonnull align 8 dereferenceable(616) %this1)
  %statusMsg_ = getelementptr inbounds %"struct.proxygen::HTTPMessage::Response", ptr %call, i32 0, i32 2
  %call2 = call noundef nonnull align 8 dereferenceable(32) ptr @_ZNSt7__cxx1112basic_stringIcSt11char_traitsIcESaIcEEaSERKS4_(ptr noundef nonnull align 8 dereferenceable(32) %statusMsg_, ptr noundef nonnull align 8 dereferenceable(32) %0)
  ret void
}

; Function Attrs: mustprogress uwtable
define void @_ZN8proxygen11HTTPMessage13setStatusCodeEt(ptr noundef nonnull align 8 dereferenceable(616) %this, i16 noundef zeroext %status) #3 align 2 personality ptr @__gxx_personality_v0 {
entry:
  %this.addr = alloca ptr, align 8
  %status.addr = alloca i16, align 2
  %ref.tmp = alloca %"class.std::__cxx11::basic_string", align 8
  %exn.slot = alloca ptr, align 8
  %ehselector.slot = alloca i32, align 4
  store ptr %this, ptr %this.addr, align 8
  store i16 %status, ptr %status.addr, align 2
  %this1 = load ptr, ptr %this.addr, align 8
  %0 = load i16, ptr %status.addr, align 2
  %call = call noundef nonnull align 8 dereferenceable(72) ptr @_ZN8proxygen11HTTPMessage8responseEv(ptr noundef nonnull align 8 dereferenceable(616) %this1)
  %status_ = getelementptr inbounds %"struct.proxygen::HTTPMessage::Response", ptr %call, i32 0, i32 0
  store i16 %0, ptr %status_, align 8
  call void @_ZN5folly2toINSt7__cxx1112basic_stringIcSt11char_traitsIcESaIcEEEJtEEENSt9enable_ifIXaasr12IsSomeStringIT_EE5valueoonesZT0_Li1Entsr3std7is_sameIS8_19__type_pack_elementIXmisPvDpT0_ELi1EEJvSB_EEEE5valueES8_E4typeEDpRKSA_(ptr sret(%"class.std::__cxx11::basic_string") align 8 %ref.tmp, ptr noundef nonnull align 2 dereferenceable(2) %status.addr)
  %call2 = invoke noundef nonnull align 8 dereferenceable(72) ptr @_ZN8proxygen11HTTPMessage8responseEv(ptr noundef nonnull align 8 dereferenceable(616) %this1)
          to label %invoke.cont unwind label %lpad

invoke.cont:                                      ; preds = %entry
  %statusStr_ = getelementptr inbounds %"struct.proxygen::HTTPMessage::Response", ptr %call2, i32 0, i32 1
  %call3 = call noundef nonnull align 8 dereferenceable(32) ptr @_ZNSt7__cxx1112basic_stringIcSt11char_traitsIcESaIcEEaSEOS4_(ptr noundef nonnull align 8 dereferenceable(32) %statusStr_, ptr noundef nonnull align 8 dereferenceable(32) %ref.tmp) #2
  call void @_ZNSt7__cxx1112basic_stringIcSt11char_traitsIcESaIcEED1Ev(ptr noundef nonnull align 8 dereferenceable(32) %ref.tmp) #2
  ret void

lpad:                                             ; preds = %entry
  %1 = landingpad { ptr, i32 }
          cleanup
  %2 = extractvalue { ptr, i32 } %1, 0
  store ptr %2, ptr %exn.slot, align 8
  %3 = extractvalue { ptr, i32 } %1, 1
  store i32 %3, ptr %ehselector.slot, align 4
  call void @_ZNSt7__cxx1112basic_stringIcSt11char_traitsIcESaIcEED1Ev(ptr noundef nonnull align 8 dereferenceable(32) %ref.tmp) #2
  br label %eh.resume

eh.resume:                                        ; preds = %lpad
  %exn = load ptr, ptr %exn.slot, align 8
  %sel = load i32, ptr %ehselector.slot, align 4
  %lpad.val = insertvalue { ptr, i32 } poison, ptr %exn, 0
  %lpad.val4 = insertvalue { ptr, i32 } %lpad.val, i32 %sel, 1
  resume { ptr, i32 } %lpad.val4
}

; Function Attrs: mustprogress uwtable
define void @_ZN8proxygen11HTTPMessage23constructDirectResponseERKSt4pairIhhEiRKNSt7__cxx1112basic_stringIcSt11char_traitsIcESaIcEEEi(ptr noundef nonnull align 8 dereferenceable(616) %this, ptr noundef nonnull align 1 dereferenceable(2) %version, i32 noundef %statusCode, ptr noundef nonnull align 8 dereferenceable(32) %statusMsg, i32 noundef %contentLength) #3 align 2 {
entry:
  %this.addr = alloca ptr, align 8
  %version.addr = alloca ptr, align 8
  %statusCode.addr = alloca i32, align 4
  %statusMsg.addr = alloca ptr, align 8
  %contentLength.addr = alloca i32, align 4
  store ptr %this, ptr %this.addr, align 8
  store ptr %version, ptr %version.addr, align 8
  store i32 %statusCode, ptr %statusCode.addr, align 4
  store ptr %statusMsg, ptr %statusMsg.addr, align 8
  store i32 %contentLength, ptr %contentLength.addr, align 4
  %this1 = load ptr, ptr %this.addr, align 8
  %0 = load i32, ptr %statusCode.addr, align 4
  %conv = trunc i32 %0 to i16
  call void @_ZN8proxygen11HTTPMessage13setStatusCodeEt(ptr noundef nonnull align 8 dereferenceable(616) %this1, i16 noundef zeroext %conv)
  %1 = load ptr, ptr %statusMsg.addr, align 8
  call void @_ZN8proxygen11HTTPMessage16setStatusMessageIRKNSt7__cxx1112basic_stringIcSt11char_traitsIcESaIcEEEEEvOT_(ptr noundef nonnull align 8 dereferenceable(616) %this1, ptr noundef nonnull align 8 dereferenceable(32) %1)
  %2 = load ptr, ptr %version.addr, align 8
  %3 = load i32, ptr %contentLength.addr, align 4
  call void @_ZN8proxygen11HTTPMessage23constructDirectResponseERKSt4pairIhhEi(ptr noundef nonnull align 8 dereferenceable(616) %this1, ptr noundef nonnull align 1 dereferenceable(2) %2, i32 noundef %3)
  ret void
}