; Function Attrs: mustprogress uwtable
define void @_ZN8proxygen11HTTPMessage23constructDirectResponseERKSt4pairIhhEiRKNSt7__cxx1112basic_stringIcSt11char_traitsIcESaIcEEEi(ptr noundef nonnull align 8 dereferenceable(616) %this, ptr nocapture noundef nonnull readonly align 1 dereferenceable(2) %version, i32 noundef %statusCode, ptr noundef nonnull align 8 dereferenceable(32) %statusMsg, i32 noundef %contentLength) local_unnamed_addr #2 align 2 personality ptr @__gxx_personality_v0 {
entry:
  %status.addr.i = alloca i16, align 2
  %ref.tmp.i = alloca %"class.std::__cxx11::basic_string", align 8
  %conv = trunc i32 %statusCode to i16
  call void @llvm.lifetime.start.p0(i64 2, ptr nonnull %status.addr.i)
  call void @llvm.lifetime.start.p0(i64 32, ptr nonnull %ref.tmp.i)
  store i16 %conv, ptr %status.addr.i, align 2
  %call.i = tail call noundef nonnull align 8 dereferenceable(72) ptr @_ZN8proxygen11HTTPMessage8responseEv(ptr noundef nonnull align 8 dereferenceable(616) %this)
  store i16 %conv, ptr %call.i, align 8
  call void @_ZN5folly2toINSt7__cxx1112basic_stringIcSt11char_traitsIcESaIcEEEJtEEENSt9enable_ifIXaasr12IsSomeStringIT_EE5valueoonesZT0_Li1Entsr3std7is_sameIS8_19__type_pack_elementIXmisPvDpT0_ELi1EEJvSB_EEEE5valueES8_E4typeEDpRKSA_(ptr nonnull sret(%"class.std::__cxx11::basic_string") align 8 %ref.tmp.i, ptr noundef nonnull align 2 dereferenceable(2) %status.addr.i)
  %call2.i = invoke noundef nonnull align 8 dereferenceable(72) ptr @_ZN8proxygen11HTTPMessage8responseEv(ptr noundef nonnull align 8 dereferenceable(616) %this)
          to label %_ZN8proxygen11HTTPMessage13setStatusCodeEt.exit unwind label %lpad.i

lpad.i:                                           ; preds = %entry
  %0 = landingpad { ptr, i32 }
          cleanup
  call void @_ZNSt7__cxx1112basic_stringIcSt11char_traitsIcESaIcEED1Ev(ptr noundef nonnull align 8 dereferenceable(32) %ref.tmp.i) #23
  resume { ptr, i32 } %0

_ZN8proxygen11HTTPMessage13setStatusCodeEt.exit:  ; preds = %entry
  %statusStr_.i = getelementptr inbounds i8, ptr %call2.i, i64 8
  %call3.i = call noundef nonnull align 8 dereferenceable(32) ptr @_ZNSt7__cxx1112basic_stringIcSt11char_traitsIcESaIcEEaSEOS4_(ptr noundef nonnull align 8 dereferenceable(32) %statusStr_.i, ptr noundef nonnull align 8 dereferenceable(32) %ref.tmp.i) #23
  call void @_ZNSt7__cxx1112basic_stringIcSt11char_traitsIcESaIcEED1Ev(ptr noundef nonnull align 8 dereferenceable(32) %ref.tmp.i) #23
  call void @llvm.lifetime.end.p0(i64 2, ptr nonnull %status.addr.i)
  call void @llvm.lifetime.end.p0(i64 32, ptr nonnull %ref.tmp.i)
  %call.i1 = call noundef nonnull align 8 dereferenceable(72) ptr @_ZN8proxygen11HTTPMessage8responseEv(ptr noundef nonnull align 8 dereferenceable(616) %this)
  %statusMsg_.i = getelementptr inbounds i8, ptr %call.i1, i64 40
  %call2.i2 = call noundef nonnull align 8 dereferenceable(32) ptr @_ZNSt7__cxx1112basic_stringIcSt11char_traitsIcESaIcEEaSERKS4_(ptr noundef nonnull align 8 dereferenceable(32) %statusMsg_.i, ptr noundef nonnull align 8 dereferenceable(32) %statusMsg)
  call void @_ZN8proxygen11HTTPMessage23constructDirectResponseERKSt4pairIhhEi(ptr noundef nonnull align 8 dereferenceable(616) %this, ptr noundef nonnull align 1 dereferenceable(2) %version, i32 noundef %contentLength)
  ret void
}